; Function Attrs: mustprogress uwtable
define void @_ZNK5faiss17AdditiveQuantizer11compute_LUTEmPKfPffl(ptr nocapture noundef nonnull readonly align 8 dereferenceable(308) %0, i64 noundef %1, ptr noundef %2, ptr noundef %3, float noundef %4, i64 noundef %5) unnamed_addr #0 align 2 {
  %7 = alloca float, align 4
  %8 = alloca i32, align 4
  %9 = alloca i32, align 4
  %10 = alloca i32, align 4
  %11 = alloca i32, align 4
  %12 = alloca float, align 4
  store float %4, ptr %7, align 4
  %13 = getelementptr inbounds i8, ptr %0, i64 120
  %14 = load i64, ptr %13, align 8
  %15 = trunc i64 %14 to i32
  store i32 %15, ptr %8, align 4
  %16 = getelementptr inbounds i8, ptr %0, i64 8
  %17 = load i64, ptr %16, align 8
  %18 = trunc i64 %17 to i32
  store i32 %18, ptr %9, align 4
  %19 = trunc i64 %1 to i32
  store i32 %19, ptr %10, align 4
  %20 = icmp sgt i64 %5, 0
  %21 = select i1 %20, i64 %5, i64 %14
  %22 = trunc i64 %21 to i32
  store i32 %22, ptr %11, align 4
  store float 0.000000e+00, ptr %12, align 4
  %23 = getelementptr inbounds i8, ptr %0, i64 56
  %24 = load ptr, ptr %23, align 8
  %25 = call i32 @sgemm_(ptr noundef nonnull @.str.9, ptr noundef nonnull @.str.10, ptr noundef nonnull %8, ptr noundef nonnull %10, ptr noundef nonnull %9, ptr noundef nonnull %7, ptr noundef %24, ptr noundef nonnull %9, ptr noundef %2, ptr noundef nonnull %9, ptr noundef nonnull %12, ptr noundef %3, ptr noundef nonnull %11)
  ret void
}